; Function Attrs: mustprogress norecurse uwtable
define dso_local noundef i32 @main() local_unnamed_addr #9 personality ptr @__gxx_personality_v0 {
  %1 = alloca %"class.pxrInternal_v0_24__pxrReserved__::TfErrorMark", align 8
  %2 = alloca %"class.pxrInternal_v0_24__pxrReserved__::TfCallContext", align 8
  call void @_ZN32pxrInternal_v0_24__pxrReserved__11TfErrorMarkC1Ev(ptr noundef nonnull align 8 dereferenceable(8) %1)
  invoke void @_Z13TraversalTestv()
          to label %3 unwind label %22

3:                                                ; preds = %0
  invoke void @_Z11SetTimeTestv()
          to label %4 unwind label %22

4:                                                ; preds = %3
  invoke void @_Z18PropertyChangeTestv()
          to label %5 unwind label %22

5:                                                ; preds = %4
  invoke void @_Z24NodeGraphInputChangeTestv()
          to label %6 unwind label %22

6:                                                ; preds = %5
  invoke void @_Z20AddNonEmptyLayerTestv()
          to label %7 unwind label %22

7:                                                ; preds = %6
  invoke void @_Z23CustomPrimvarChangeTestv()
          to label %8 unwind label %22

8:                                                ; preds = %7
  %9 = invoke noundef nonnull align 8 dereferenceable(481) ptr @_ZN32pxrInternal_v0_24__pxrReserved__11TfSingletonINS_15TfDiagnosticMgrEE11GetInstanceEv()
          to label %.noexc unwind label %22

.noexc:                                           ; preds = %8
  %10 = load i64, ptr %1, align 8
  %11 = getelementptr inbounds nuw i8, ptr %9, i64 152
  %12 = load atomic i64, ptr %11 seq_cst, align 8
  %.not.i = icmp ult i64 %10, %12
  br i1 %.not.i, label %13, label %.critedge

13:                                               ; preds = %.noexc
  %14 = invoke noundef zeroext i1 @_ZNK32pxrInternal_v0_24__pxrReserved__11TfErrorMark12_IsCleanImplERNS_15TfDiagnosticMgrE(ptr noundef nonnull align 8 dereferenceable(8) %1, ptr noundef nonnull align 8 dereferenceable(481) %9)
          to label %_ZNK32pxrInternal_v0_24__pxrReserved__11TfErrorMark7IsCleanEv.exit unwind label %22

_ZNK32pxrInternal_v0_24__pxrReserved__11TfErrorMark7IsCleanEv.exit: ; preds = %13
  br i1 %14, label %.critedge, label %15

15:                                               ; preds = %_ZNK32pxrInternal_v0_24__pxrReserved__11TfErrorMark7IsCleanEv.exit
  store ptr @.str.1, ptr %2, align 8
  %16 = getelementptr inbounds nuw i8, ptr %2, i64 8
  store ptr @__func__.main, ptr %16, align 8
  %17 = getelementptr inbounds nuw i8, ptr %2, i64 16
  store i64 739, ptr %17, align 8
  %18 = getelementptr inbounds nuw i8, ptr %2, i64 24
  store ptr @__PRETTY_FUNCTION__.main, ptr %18, align 8
  %19 = getelementptr inbounds nuw i8, ptr %2, i64 32
  store i8 0, ptr %19, align 8
  %20 = invoke noundef zeroext i1 @_ZN32pxrInternal_v0_24__pxrReserved__21Tf_FailedVerifyHelperERKNS_13TfCallContextEPKcS4_(ptr noundef nonnull align 8 dereferenceable(33) %2, ptr noundef nonnull @.str.57, ptr noundef null)
          to label %21 unwind label %22

21:                                               ; preds = %15
  br i1 %20, label %.critedge, label %.invoke3

.critedge:                                        ; preds = %.noexc, %_ZNK32pxrInternal_v0_24__pxrReserved__11TfErrorMark7IsCleanEv.exit, %21
  br label %.invoke3

22:                                               ; preds = %.invoke3, %.invoke, %13, %8, %15, %7, %6, %5, %4, %3, %0
  %23 = landingpad { ptr, i32 }
          cleanup
  call void @_ZN32pxrInternal_v0_24__pxrReserved__11TfErrorMarkD1Ev(ptr noundef nonnull align 8 dereferenceable(8) %1) #24
  resume { ptr, i32 } %23

.invoke3:                                         ; preds = %21, %.critedge
  %24 = phi ptr [ @.str.58, %.critedge ], [ @.str.59, %21 ]
  %25 = invoke noundef nonnull align 8 dereferenceable(8) ptr @_ZStlsISt11char_traitsIcEERSt13basic_ostreamIcT_ES5_PKc(ptr noundef nonnull align 8 dereferenceable(8) @_ZSt4cout, ptr noundef nonnull %24)
          to label %.invoke unwind label %22

.invoke:                                          ; preds = %.invoke3
  %26 = invoke noundef nonnull align 8 dereferenceable(8) ptr @_ZNSolsEPFRSoS_E(ptr noundef nonnull align 8 dereferenceable(8) %25, ptr noundef nonnull @_ZSt4endlIcSt11char_traitsIcEERSt13basic_ostreamIT_T0_ES6_)
          to label %27 unwind label %22

27:                                               ; preds = %.invoke
  call void @_ZN32pxrInternal_v0_24__pxrReserved__11TfErrorMarkD1Ev(ptr noundef nonnull align 8 dereferenceable(8) %1) #24
  ret i32 0
}